target datalayout = "e-m:e-p270:32:32-p271:32:32-p272:64:64-i64:64-i128:128-f80:128-n8:16:32:64-S128"
target triple = "x86_64-pc-linux-gnu"

%class.params_ref = type { ptr }
%class.lackr = type <{ ptr, %class.params_ref, ptr, %class.array_util, %class.ref_vector, %class.obj_map, %class.obj_map.0, %class.ref, ptr, %class.ackr_helper, %class.th_rewriter, %class.ref_vector, %class.ref.5, i8, [7 x i8], %class.obj_mark, %class.ast_mark, ptr, i8, [7 x i8] }>
%class.array_util = type { %class.array_recognizers, ptr }
%class.array_recognizers = type { i32 }
%class.obj_map = type { %class.core_hashtable }
%class.core_hashtable = type <{ ptr, i32, i32, i32, [4 x i8] }>
%class.obj_map.0 = type { %class.core_hashtable.1 }
%class.core_hashtable.1 = type <{ ptr, i32, i32, i32, [4 x i8] }>
%class.ref = type { ptr }
%class.ackr_helper = type { %class.bv_util, %class.array_util }
%class.bv_util = type { %class.bv_recognizers, ptr, ptr }
%class.bv_recognizers = type { i32 }
%class.th_rewriter = type { ptr, %class.params_ref }
%class.ref_vector = type { %class.ref_vector_core }
%class.ref_vector_core = type { %class.ref_manager_wrapper, %class.ptr_vector }
%class.ref_manager_wrapper = type { ptr }
%class.ptr_vector = type { %class.vector }
%class.vector = type { ptr }
%class.ref.5 = type { ptr }
%class.obj_mark = type { [8 x i8], %class.bit_vector }
%class.bit_vector = type { i32, i32, ptr }
%class.ast_mark = type { ptr, %class.obj_mark, %class.obj_mark.6 }
%class.obj_mark.6 = type { [8 x i8], %class.bit_vector }
%class.ref.41 = type { ptr }

; Function Attrs: mustprogress nounwind uwtable
define linkonce_odr hidden noundef i32 @_ZNK6vectorIP4exprLb0EjE4sizeEv(ptr noundef nonnull align 8 dereferenceable(8) %0) #5 comdat align 2 {
  %2 = alloca i32, align 4
  %3 = alloca ptr, align 8
  store ptr %0, ptr %3, align 8, !tbaa !263
  %4 = load ptr, ptr %3, align 8
  %5 = getelementptr inbounds nuw %class.vector, ptr %4, i32 0, i32 0
  %6 = load ptr, ptr %5, align 8, !tbaa !265
  %7 = icmp eq ptr %6, null
  br i1 %7, label %8, label %9

8:                                                ; preds = %1
  store i32 0, ptr %2, align 4
  br label %14

9:                                                ; preds = %1
  %10 = getelementptr inbounds nuw %class.vector, ptr %4, i32 0, i32 0
  %11 = load ptr, ptr %10, align 8, !tbaa !265
  %12 = getelementptr inbounds i32, ptr %11, i64 -1
  %13 = load i32, ptr %12, align 4, !tbaa !106
  store i32 %13, ptr %2, align 4
  br label %14

14:                                               ; preds = %9, %8
  %15 = load i32, ptr %2, align 4
  ret i32 %15
}

; Function Attrs: mustprogress nounwind uwtable
define linkonce_odr hidden noundef i32 @_ZNK15ref_vector_coreI4expr19ref_manager_wrapperIS0_11ast_managerEE4sizeEv(ptr noundef nonnull align 8 dereferenceable(16) %0) #5 comdat align 2 {
  %2 = alloca ptr, align 8
  store ptr %0, ptr %2, align 8, !tbaa !81
  %3 = load ptr, ptr %2, align 8
  %4 = getelementptr inbounds nuw %class.ref_vector_core, ptr %3, i32 0, i32 1
  %5 = call noundef i32 @_ZNK6vectorIP4exprLb0EjE4sizeEv(ptr noundef nonnull align 8 dereferenceable(8) %4)
  ret i32 %5
}

; Function Attrs: mustprogress nounwind uwtable
define linkonce_odr hidden noundef ptr @_ZNK6vectorIP4exprLb0EjE5beginEv(ptr noundef nonnull align 8 dereferenceable(8) %0) #5 comdat align 2 {
  %2 = alloca ptr, align 8
  store ptr %0, ptr %2, align 8, !tbaa !263
  %3 = load ptr, ptr %2, align 8
  %4 = getelementptr inbounds nuw %class.vector, ptr %3, i32 0, i32 0
  %5 = load ptr, ptr %4, align 8, !tbaa !265
  ret ptr %5
}

; Function Attrs: mustprogress uwtable
define linkonce_odr hidden void @_ZN4goal11assert_exprEP4expr(ptr noundef nonnull align 8 dereferenceable(124) %0, ptr noundef %1) #4 comdat align 2 {
  %3 = alloca ptr, align 8
  %4 = alloca ptr, align 8
  store ptr %0, ptr %3, align 8, !tbaa !137
  store ptr %1, ptr %4, align 8, !tbaa !129
  %5 = load ptr, ptr %3, align 8
  %6 = load ptr, ptr %4, align 8, !tbaa !129
  call void @_ZN4goal11assert_exprEP4exprPN18dependency_managerIN11ast_manager22expr_dependency_configEE10dependencyE(ptr noundef nonnull align 8 dereferenceable(124) %5, ptr noundef %6, ptr noundef null)
  ret void
}

; Function Attrs: mustprogress nounwind uwtable
define linkonce_odr hidden noundef ptr @_ZNK3refI4goalEptEv(ptr noundef nonnull align 8 dereferenceable(8) %0) #5 comdat align 2 {
  %2 = alloca ptr, align 8
  store ptr %0, ptr %2, align 8, !tbaa !124
  %3 = load ptr, ptr %2, align 8
  %4 = getelementptr inbounds nuw %class.ref.41, ptr %3, i32 0, i32 0
  %5 = load ptr, ptr %4, align 8, !tbaa !134
  ret ptr %5
}

; Function Attrs: mustprogress uwtable
define linkonce_odr hidden noundef ptr @_ZNK15ref_vector_coreI4expr19ref_manager_wrapperIS0_11ast_managerEE3endEv(ptr noundef nonnull align 8 dereferenceable(16) %0) #4 comdat align 2 {
  %2 = alloca ptr, align 8
  store ptr %0, ptr %2, align 8, !tbaa !81
  %3 = load ptr, ptr %2, align 8
  %4 = call noundef ptr @_ZNK15ref_vector_coreI4expr19ref_manager_wrapperIS0_11ast_managerEE5beginEv(ptr noundef nonnull align 8 dereferenceable(16) %3)
  %5 = call noundef i32 @_ZNK15ref_vector_coreI4expr19ref_manager_wrapperIS0_11ast_managerEE4sizeEv(ptr noundef nonnull align 8 dereferenceable(16) %3)
  %6 = zext i32 %5 to i64
  %7 = getelementptr inbounds nuw ptr, ptr %4, i64 %6
  ret ptr %7
}

; Function Attrs: mustprogress uwtable
define linkonce_odr hidden noundef ptr @_ZNK15ref_vector_coreI4expr19ref_manager_wrapperIS0_11ast_managerEE5beginEv(ptr noundef nonnull align 8 dereferenceable(16) %0) #4 comdat align 2 {
  %2 = alloca ptr, align 8
  store ptr %0, ptr %2, align 8, !tbaa !81
  %3 = load ptr, ptr %2, align 8
  %4 = getelementptr inbounds nuw %class.ref_vector_core, ptr %3, i32 0, i32 1
  %5 = call noundef ptr @_ZNK6vectorIP4exprLb0EjE5beginEv(ptr noundef nonnull align 8 dereferenceable(8) %4)
  ret ptr %5
}

; Function Attrs: mustprogress nounwind uwtable
define linkonce_odr hidden noundef double @_ZNSt14numeric_limitsIdE8infinityEv() #5 comdat align 2 {
  ret double 0x7FF0000000000000
}

; Function Attrs: mustprogress uwtable
define hidden noundef zeroext i1 @_ZN5lackr12mk_ackermannER3refI4goalEd(ptr noundef nonnull align 8 dereferenceable(297) %0, ptr noundef nonnull align 8 dereferenceable(8) %1, double noundef %2) #4 align 2 {
  %4 = alloca i1, align 1
  %5 = alloca ptr, align 8
  %6 = alloca ptr, align 8
  %7 = alloca double, align 8
  %8 = alloca ptr, align 8
  %9 = alloca ptr, align 8
  %10 = alloca ptr, align 8
  %11 = alloca ptr, align 8
  %12 = alloca ptr, align 8
  %13 = alloca ptr, align 8
  %14 = alloca ptr, align 8
  %15 = alloca ptr, align 8
  store ptr %0, ptr %5, align 8, !tbaa !3
  store ptr %1, ptr %6, align 8, !tbaa !124
  store double %2, ptr %7, align 8, !tbaa !126
  %16 = load ptr, ptr %5, align 8
  %17 = load double, ptr %7, align 8, !tbaa !126
  %18 = fcmp ole double %17, 0.000000e+00
  br i1 %18, label %19, label %20

19:                                               ; preds = %3
  store i1 false, ptr %4, align 1
  br label %75

20:                                               ; preds = %3
  %21 = call noundef zeroext i1 @_ZN5lackr4initEv(ptr noundef nonnull align 8 dereferenceable(297) %16)
  br i1 %21, label %23, label %22

22:                                               ; preds = %20
  store i1 false, ptr %4, align 1
  br label %75

23:                                               ; preds = %20
  %24 = load double, ptr %7, align 8, !tbaa !126
  %25 = call noundef double @_ZNSt14numeric_limitsIdE8infinityEv() #3
  %26 = fcmp une double %24, %25
  br i1 %26, label %27, label %34

27:                                               ; preds = %23
  %28 = getelementptr inbounds nuw %class.lackr, ptr %16, i32 0, i32 5
  %29 = getelementptr inbounds nuw %class.lackr, ptr %16, i32 0, i32 6
  %30 = call noundef double @_ZN11ackr_helper21calculate_lemma_boundERK7obj_mapI9func_declPNS_7app_occEERKS0_I3appS3_E(ptr noundef nonnull align 8 dereferenceable(24) %28, ptr noundef nonnull align 8 dereferenceable(24) %29)
  %31 = load double, ptr %7, align 8, !tbaa !126
  %32 = fcmp ogt double %30, %31
  br i1 %32, label %33, label %34

33:                                               ; preds = %27
  store i1 false, ptr %4, align 1
  br label %75

34:                                               ; preds = %27, %23
  call void @_ZN5lackr9eager_encEv(ptr noundef nonnull align 8 dereferenceable(297) %16)
  call void @llvm.lifetime.start.p0(i64 8, ptr %8) #3
  %35 = getelementptr inbounds nuw %class.lackr, ptr %16, i32 0, i32 4
  store ptr %35, ptr %8, align 8, !tbaa !57
  call void @llvm.lifetime.start.p0(i64 8, ptr %9) #3
  %36 = load ptr, ptr %8, align 8, !tbaa !57
  %37 = call noundef ptr @_ZNK15ref_vector_coreI4expr19ref_manager_wrapperIS0_11ast_managerEE5beginEv(ptr noundef nonnull align 8 dereferenceable(16) %36)
  store ptr %37, ptr %9, align 8, !tbaa !128
  call void @llvm.lifetime.start.p0(i64 8, ptr %10) #3
  %38 = load ptr, ptr %8, align 8, !tbaa !57
  %39 = call noundef ptr @_ZNK15ref_vector_coreI4expr19ref_manager_wrapperIS0_11ast_managerEE3endEv(ptr noundef nonnull align 8 dereferenceable(16) %38)
  store ptr %39, ptr %10, align 8, !tbaa !128
  br label %40

40:                                               ; preds = %51, %34
  %41 = load ptr, ptr %9, align 8, !tbaa !128
  %42 = load ptr, ptr %10, align 8, !tbaa !128
  %43 = icmp ne ptr %41, %42
  br i1 %43, label %45, label %44

44:                                               ; preds = %40
  call void @llvm.lifetime.end.p0(i64 8, ptr %10) #3
  call void @llvm.lifetime.end.p0(i64 8, ptr %9) #3
  call void @llvm.lifetime.end.p0(i64 8, ptr %8) #3
  br label %54

45:                                               ; preds = %40
  call void @llvm.lifetime.start.p0(i64 8, ptr %11) #3
  %46 = load ptr, ptr %9, align 8, !tbaa !128
  %47 = load ptr, ptr %46, align 8, !tbaa !129
  store ptr %47, ptr %11, align 8, !tbaa !129
  %48 = load ptr, ptr %6, align 8, !tbaa !124
  %49 = call noundef ptr @_ZNK3refI4goalEptEv(ptr noundef nonnull align 8 dereferenceable(8) %48)
  %50 = load ptr, ptr %11, align 8, !tbaa !129
  call void @_ZN4goal11assert_exprEP4expr(ptr noundef nonnull align 8 dereferenceable(124) %49, ptr noundef %50)
  call void @llvm.lifetime.end.p0(i64 8, ptr %11) #3
  br label %51

51:                                               ; preds = %45
  %52 = load ptr, ptr %9, align 8, !tbaa !128
  %53 = getelementptr inbounds nuw ptr, ptr %52, i32 1
  store ptr %53, ptr %9, align 8, !tbaa !128
  br label %40

54:                                               ; preds = %44
  call void @llvm.lifetime.start.p0(i64 8, ptr %12) #3
  %55 = getelementptr inbounds nuw %class.lackr, ptr %16, i32 0, i32 11
  store ptr %55, ptr %12, align 8, !tbaa !57
  call void @llvm.lifetime.start.p0(i64 8, ptr %13) #3
  %56 = load ptr, ptr %12, align 8, !tbaa !57
  %57 = call noundef ptr @_ZNK15ref_vector_coreI4expr19ref_manager_wrapperIS0_11ast_managerEE5beginEv(ptr noundef nonnull align 8 dereferenceable(16) %56)
  store ptr %57, ptr %13, align 8, !tbaa !128
  call void @llvm.lifetime.start.p0(i64 8, ptr %14) #3
  %58 = load ptr, ptr %12, align 8, !tbaa !57
  %59 = call noundef ptr @_ZNK15ref_vector_coreI4expr19ref_manager_wrapperIS0_11ast_managerEE3endEv(ptr noundef nonnull align 8 dereferenceable(16) %58)
  store ptr %59, ptr %14, align 8, !tbaa !128
  br label %60

60:                                               ; preds = %71, %54
  %61 = load ptr, ptr %13, align 8, !tbaa !128
  %62 = load ptr, ptr %14, align 8, !tbaa !128
  %63 = icmp ne ptr %61, %62
  br i1 %63, label %65, label %64

64:                                               ; preds = %60
  call void @llvm.lifetime.end.p0(i64 8, ptr %14) #3
  call void @llvm.lifetime.end.p0(i64 8, ptr %13) #3
  call void @llvm.lifetime.end.p0(i64 8, ptr %12) #3
  br label %74

65:                                               ; preds = %60
  call void @llvm.lifetime.start.p0(i64 8, ptr %15) #3
  %66 = load ptr, ptr %13, align 8, !tbaa !128
  %67 = load ptr, ptr %66, align 8, !tbaa !129
  store ptr %67, ptr %15, align 8, !tbaa !129
  %68 = load ptr, ptr %6, align 8, !tbaa !124
  %69 = call noundef ptr @_ZNK3refI4goalEptEv(ptr noundef nonnull align 8 dereferenceable(8) %68)
  %70 = load ptr, ptr %15, align 8, !tbaa !129
  call void @_ZN4goal11assert_exprEP4expr(ptr noundef nonnull align 8 dereferenceable(124) %69, ptr noundef %70)
  call void @llvm.lifetime.end.p0(i64 8, ptr %15) #3
  br label %71

71:                                               ; preds = %65
  %72 = load ptr, ptr %13, align 8, !tbaa !128
  %73 = getelementptr inbounds nuw ptr, ptr %72, i32 1
  store ptr %73, ptr %13, align 8, !tbaa !128
  br label %60

74:                                               ; preds = %64
  store i1 true, ptr %4, align 1
  br label %75

75:                                               ; preds = %74, %33, %22, %19
  %76 = load i1, ptr %4, align 1
  ret i1 %76
}