; Function Attrs: mustprogress uwtable
define hidden noundef zeroext i1 @_ZN5lackr12mk_ackermannER3refI4goalEd(ptr noundef nonnull align 8 dereferenceable(297) %0, ptr noundef nonnull readonly align 8 captures(none) dereferenceable(8) %1, double noundef %2) local_unnamed_addr #3 align 2 {
  %4 = fcmp ugt double %2, 0.000000e+00
  br i1 %4, label %5, label %.loopexit

5:                                                ; preds = %3
  %6 = tail call noundef zeroext i1 @_ZN5lackr4initEv(ptr noundef nonnull align 8 dereferenceable(297) %0)
  br i1 %6, label %7, label %.loopexit

7:                                                ; preds = %5
  %8 = fcmp une double %2, 0x7FF0000000000000
  br i1 %8, label %9, label %14

9:                                                ; preds = %7
  %10 = getelementptr inbounds nuw i8, ptr %0, i64 56
  %11 = getelementptr inbounds nuw i8, ptr %0, i64 80
  %12 = tail call noundef double @_ZN11ackr_helper21calculate_lemma_boundERK7obj_mapI9func_declPNS_7app_occEERKS0_I3appS3_E(ptr noundef nonnull align 8 dereferenceable(24) %10, ptr noundef nonnull align 8 dereferenceable(24) %11)
  %13 = fcmp ogt double %12, %2
  br i1 %13, label %.loopexit, label %14

14:                                               ; preds = %9, %7
  tail call void @_ZN5lackr9eager_encEv(ptr noundef nonnull align 8 dereferenceable(297) %0)
  %15 = getelementptr inbounds nuw i8, ptr %0, i64 48
  %16 = load ptr, ptr %15, align 8, !tbaa !10
  %17 = icmp eq ptr %16, null
  br i1 %17, label %._crit_edge, label %_ZNK15ref_vector_coreI4expr19ref_manager_wrapperIS0_11ast_managerEE3endEv.exit

_ZNK15ref_vector_coreI4expr19ref_manager_wrapperIS0_11ast_managerEE3endEv.exit: ; preds = %14
  %18 = getelementptr inbounds i8, ptr %16, i64 -4
  %19 = load i32, ptr %18, align 4, !tbaa !83
  %20 = zext i32 %19 to i64
  %21 = getelementptr inbounds nuw ptr, ptr %16, i64 %20
  %.not27 = icmp eq i32 %19, 0
  br i1 %.not27, label %._crit_edge, label %.lr.ph

._crit_edge:                                      ; preds = %.lr.ph, %14, %_ZNK15ref_vector_coreI4expr19ref_manager_wrapperIS0_11ast_managerEE3endEv.exit
  %22 = getelementptr inbounds nuw i8, ptr %0, i64 184
  %23 = load ptr, ptr %22, align 8, !tbaa !10
  %24 = icmp eq ptr %23, null
  br i1 %24, label %.loopexit, label %_ZNK15ref_vector_coreI4expr19ref_manager_wrapperIS0_11ast_managerEE3endEv.exit26

_ZNK15ref_vector_coreI4expr19ref_manager_wrapperIS0_11ast_managerEE3endEv.exit26: ; preds = %._crit_edge
  %25 = getelementptr inbounds i8, ptr %23, i64 -4
  %26 = load i32, ptr %25, align 4, !tbaa !83
  %27 = zext i32 %26 to i64
  %28 = getelementptr inbounds nuw ptr, ptr %23, i64 %27
  %.not2429 = icmp eq i32 %26, 0
  br i1 %.not2429, label %.loopexit, label %.lr.ph31

.lr.ph:                                           ; preds = %_ZNK15ref_vector_coreI4expr19ref_manager_wrapperIS0_11ast_managerEE3endEv.exit, %.lr.ph
  %.02128 = phi ptr [ %31, %.lr.ph ], [ %16, %_ZNK15ref_vector_coreI4expr19ref_manager_wrapperIS0_11ast_managerEE3endEv.exit ]
  %29 = load ptr, ptr %.02128, align 8, !tbaa !84
  %30 = load ptr, ptr %1, align 8, !tbaa !147
  tail call void @_ZN4goal11assert_exprEP4exprPN18dependency_managerIN11ast_manager22expr_dependency_configEE10dependencyE(ptr noundef nonnull align 8 dereferenceable(124) %30, ptr noundef %29, ptr noundef null)
  %31 = getelementptr inbounds nuw i8, ptr %.02128, i64 8
  %.not = icmp eq ptr %31, %21
  br i1 %.not, label %._crit_edge, label %.lr.ph

.lr.ph31:                                         ; preds = %_ZNK15ref_vector_coreI4expr19ref_manager_wrapperIS0_11ast_managerEE3endEv.exit26, %.lr.ph31
  %.02230 = phi ptr [ %34, %.lr.ph31 ], [ %23, %_ZNK15ref_vector_coreI4expr19ref_manager_wrapperIS0_11ast_managerEE3endEv.exit26 ]
  %32 = load ptr, ptr %.02230, align 8, !tbaa !84
  %33 = load ptr, ptr %1, align 8, !tbaa !147
  tail call void @_ZN4goal11assert_exprEP4exprPN18dependency_managerIN11ast_manager22expr_dependency_configEE10dependencyE(ptr noundef nonnull align 8 dereferenceable(124) %33, ptr noundef %32, ptr noundef null)
  %34 = getelementptr inbounds nuw i8, ptr %.02230, i64 8
  %.not24 = icmp eq ptr %34, %28
  br i1 %.not24, label %.loopexit, label %.lr.ph31

.loopexit:                                        ; preds = %.lr.ph31, %._crit_edge, %_ZNK15ref_vector_coreI4expr19ref_manager_wrapperIS0_11ast_managerEE3endEv.exit26, %9, %5, %3
  %.0 = phi i1 [ false, %3 ], [ false, %5 ], [ false, %9 ], [ true, %_ZNK15ref_vector_coreI4expr19ref_manager_wrapperIS0_11ast_managerEE3endEv.exit26 ], [ true, %._crit_edge ], [ true, %.lr.ph31 ]
  ret i1 %.0
}